; Function Attrs: mustprogress nounwind uwtable
define void @_ZN5boost4urls8url_base6paramsENS0_13encoding_optsE(ptr dead_on_unwind noalias writable sret(%"class.boost::urls::params_ref") align 8 %0, ptr noundef nonnull align 8 dereferenceable(216) %1, i24 %2) local_unnamed_addr #6 align 2 {
  %4 = alloca %"class.boost::urls::detail::query_ref", align 8
  call void @llvm.lifetime.start.p0(i64 48, ptr nonnull %4) #30
  %5 = getelementptr inbounds i8, ptr %1, i64 16
  call void @_ZN5boost4urls6detail9query_refC1ERKNS1_8url_implE(ptr noundef nonnull align 8 dereferenceable(41) %4, ptr noundef nonnull align 8 dereferenceable(171) %5) #30
  call void @_ZN5boost4urls11params_baseC2ERKNS0_6detail9query_refENS0_13encoding_optsE(ptr noundef nonnull align 8 dereferenceable(64) %0, ptr noundef nonnull align 8 dereferenceable(41) %4, i24 %2) #30
  call void @llvm.lifetime.end.p0(i64 48, ptr nonnull %4) #30
  %6 = getelementptr inbounds nuw i8, ptr %0, i64 56
  store ptr %1, ptr %6, align 8, !tbaa !157
  ret void
}